; Function Attrs: nounwind uwtable
define hidden void @mi_heap_delete(ptr noundef %0) local_unnamed_addr #0 {
  %2 = icmp ne ptr %0, null
  %3 = icmp ne ptr %0, @_mi_heap_empty
  %or.cond = and i1 %2, %3
  br i1 %or.cond, label %4, label %mi_heap_free.exit

4:                                                ; preds = %1
  %5 = load ptr, ptr %0, align 8, !tbaa !14
  %6 = getelementptr inbounds nuw i8, ptr %5, i64 16
  %7 = load ptr, ptr %6, align 8, !tbaa !15
  %.not = icmp eq ptr %7, %0
  br i1 %.not, label %mi_heaps_are_compatible.exit.thread, label %8

8:                                                ; preds = %4
  %9 = getelementptr inbounds nuw i8, ptr %7, i64 225
  %10 = load i8, ptr %9, align 1, !tbaa !42
  %11 = getelementptr inbounds nuw i8, ptr %0, i64 225
  %12 = load i8, ptr %11, align 1, !tbaa !42
  %13 = icmp eq i8 %10, %12
  br i1 %13, label %mi_heaps_are_compatible.exit, label %mi_heaps_are_compatible.exit.thread

mi_heaps_are_compatible.exit:                     ; preds = %8
  %14 = getelementptr inbounds nuw i8, ptr %7, i64 24
  %15 = load i32, ptr %14, align 8, !tbaa !41
  %16 = getelementptr inbounds nuw i8, ptr %0, i64 24
  %17 = load i32, ptr %16, align 8, !tbaa !41
  %18 = icmp eq i32 %15, %17
  br i1 %18, label %19, label %mi_heaps_are_compatible.exit.thread

19:                                               ; preds = %mi_heaps_are_compatible.exit
  %20 = getelementptr inbounds nuw i8, ptr %0, i64 192
  %21 = load i64, ptr %20, align 8, !tbaa !27
  %22 = icmp eq i64 %21, 0
  br i1 %22, label %mi_heap_absorb.exit, label %23

23:                                               ; preds = %19
  %24 = tail call zeroext i1 @_mi_heap_delayed_free_partial(ptr noundef nonnull %0) #11
  %25 = getelementptr inbounds nuw i8, ptr %7, i64 1264
  %26 = getelementptr inbounds nuw i8, ptr %0, i64 1264
  %27 = getelementptr inbounds nuw i8, ptr %7, i64 192
  br label %31

28:                                               ; preds = %31
  tail call void @_mi_heap_delayed_free_all(ptr noundef nonnull %0) #11
  %29 = getelementptr inbounds nuw i8, ptr %0, i64 232
  tail call void @llvm.memset.p0.i64(ptr noundef nonnull align 8 dereferenceable(1032) %29, i8 0, i64 1032, i1 false)
  call void @llvm.assume(i1 true) [ "align"(ptr %26, i64 8) ]
  call void @llvm.assume(i1 true) [ "align"(ptr getelementptr inbounds nuw (i8, ptr @_mi_heap_empty, i64 1264), i64 8) ]
  tail call void @llvm.memcpy.p0.p0.i64(ptr noundef nonnull align 8 dereferenceable(1800) %26, ptr noundef nonnull readonly align 8 dereferenceable(1800) getelementptr inbounds nuw (i8, ptr @_mi_heap_empty, i64 1264), i64 range(i64 1800, 3065) 1800, i1 false)
  %30 = getelementptr inbounds nuw i8, ptr %0, i64 8
  store atomic ptr null, ptr %30 seq_cst, align 8, !tbaa !48
  store i64 0, ptr %20, align 8, !tbaa !27
  br label %mi_heap_absorb.exit

31:                                               ; preds = %31, %23
  %.018.i = phi i64 [ 0, %23 ], [ %39, %31 ]
  %32 = getelementptr inbounds nuw [75 x %struct.mi_page_queue_s], ptr %25, i64 0, i64 %.018.i
  %33 = getelementptr inbounds nuw [75 x %struct.mi_page_queue_s], ptr %26, i64 0, i64 %.018.i
  %34 = tail call i64 @_mi_page_queue_append(ptr noundef nonnull %7, ptr noundef nonnull %32, ptr noundef nonnull %33) #11
  %35 = load i64, ptr %27, align 8, !tbaa !27
  %36 = add i64 %35, %34
  store i64 %36, ptr %27, align 8, !tbaa !27
  %37 = load i64, ptr %20, align 8, !tbaa !27
  %38 = sub i64 %37, %34
  store i64 %38, ptr %20, align 8, !tbaa !27
  %39 = add nuw nsw i64 %.018.i, 1
  %exitcond.not.i = icmp eq i64 %39, 75
  br i1 %exitcond.not.i, label %28, label %31, !llvm.loop !50

mi_heaps_are_compatible.exit.thread:              ; preds = %8, %mi_heaps_are_compatible.exit, %4
  tail call fastcc void @mi_heap_collect_ex(ptr noundef nonnull %0, i32 noundef 2) #10
  br label %mi_heap_absorb.exit

mi_heap_absorb.exit:                              ; preds = %mi_heaps_are_compatible.exit.thread, %19, %28
  %40 = load ptr, ptr %0, align 8, !tbaa !14
  %41 = getelementptr inbounds nuw i8, ptr %40, i64 16
  %42 = load ptr, ptr %41, align 8, !tbaa !15
  %43 = icmp eq ptr %42, %0
  br i1 %43, label %mi_heap_free.exit, label %44

44:                                               ; preds = %mi_heap_absorb.exit
  %45 = tail call align 8 ptr @llvm.threadlocal.address.p0(ptr align 8 @_mi_heap_default)
  %46 = load ptr, ptr %45, align 8, !tbaa !40
  %47 = icmp eq ptr %0, %46
  br i1 %47, label %48, label %49

48:                                               ; preds = %44
  tail call void @_mi_heap_set_default_direct(ptr noundef %42) #11
  %.pre.i = load ptr, ptr %0, align 8, !tbaa !14
  br label %49

49:                                               ; preds = %48, %44
  %50 = phi ptr [ %.pre.i, %48 ], [ %40, %44 ]
  %51 = getelementptr inbounds nuw i8, ptr %50, i64 24
  br label %52

52:                                               ; preds = %52, %49
  %.019.i = phi ptr [ null, %49 ], [ %.0.i, %52 ]
  %.0.in.i = phi ptr [ %51, %49 ], [ %56, %52 ]
  %.0.i = load ptr, ptr %.0.in.i, align 8, !tbaa !40
  %53 = icmp ne ptr %.0.i, %0
  %54 = icmp ne ptr %.0.i, null
  %55 = and i1 %53, %54
  %56 = getelementptr inbounds nuw i8, ptr %.0.i, i64 216
  br i1 %55, label %52, label %57, !llvm.loop !49

57:                                               ; preds = %52
  %58 = icmp eq ptr %.0.i, %0
  br i1 %58, label %59, label %65

59:                                               ; preds = %57
  %.not.i = icmp eq ptr %.019.i, null
  %60 = getelementptr inbounds nuw i8, ptr %0, i64 216
  %61 = load ptr, ptr %60, align 8, !tbaa !46
  br i1 %.not.i, label %64, label %62

62:                                               ; preds = %59
  %63 = getelementptr inbounds nuw i8, ptr %.019.i, i64 216
  store ptr %61, ptr %63, align 8, !tbaa !46
  br label %65

64:                                               ; preds = %59
  store ptr %61, ptr %51, align 8, !tbaa !45
  br label %65

65:                                               ; preds = %64, %62, %57
  tail call void @mi_free(ptr noundef nonnull %0) #11
  br label %mi_heap_free.exit

mi_heap_free.exit:                                ; preds = %65, %mi_heap_absorb.exit, %1
  ret void
}